Certificate:
    Data:
        Version: 3 (0x2)
        Serial Number: 6128 (0x17f0)
        Signature Algorithm: sha256WithRSAEncryption
        Issuer: C=US, ST=Washington, L=Seattle, O=getaCert - www.getacert.com
        Validity
            Not Before: Apr 27 06:29:32 2022 GMT
            Not After : Jun 26 06:29:32 2022 GMT
        Subject: C=NO, ST=Trondelag, L=TRD, O=BOCO, OU=BOCO, CN=BOCO
        Subject Public Key Info:
            Public Key Algorithm: rsaEncryption
                RSA Public-Key: (2048 bit)
                Modulus:
                    00:a1:4e:6e:69:90:60:95:5c:18:39:2c:26:c6:20:
                    4f:f9:7a:61:3c:43:74:75:76:75:9b:61:d1:5b:48:
                    68:90:64:14:bc:79:91:ce:d3:d0:22:a4:94:12:d7:
                    85:36:4b:6a:aa:73:6a:f6:57:7c:dc:9f:17:d6:a4:
                    e8:11:15:0a:da:60:78:b1:ee:2e:4c:b8:d4:7d:4f:
                    5a:2f:e0:b0:e0:76:ab:f1:6e:94:cf:4e:01:34:82:
                    1a:3f:8b:d9:aa:df:27:7b:d0:d1:db:00:ea:84:07:
                    4d:ff:b0:d1:96:88:30:cd:e8:34:53:5f:1a:7e:09:
                    35:71:31:dc:d6:c2:4c:9e:c4:d0:6d:96:67:7f:18:
                    a7:a1:5c:2f:c5:68:6f:30:78:9e:98:56:89:5c:48:
                    46:c4:f8:d9:78:da:07:a3:3c:5a:f5:38:94:4e:74:
                    85:af:3c:36:c5:d4:77:4f:e0:af:66:1c:d4:f2:bf:
                    87:b1:5d:b3:a6:2d:97:17:38:45:93:e8:5f:b4:bb:
                    85:fd:62:b4:b0:83:b0:35:1f:f6:c8:b0:eb:ef:bb:
                    ad:f0:24:40:38:2c:35:d8:80:da:e5:b9:29:da:8a:
                    d3:d3:cd:61:fa:bf:88:f3:91:df:53:79:bd:81:07:
                    24:1d:be:fd:d2:12:a6:ff:f1:d1:87:33:ad:b4:ca:
                    26:f3
                Exponent: 65537 (0x10001)
        X509v3 extensions:
            X509v3 Basic Constraints: 
                CA:FALSE
            Netscape Cert Type: 
                SSL Client, SSL Server, S/MIME, Object Signing
            X509v3 Key Usage: 
                Digital Signature, Key Encipherment
            X509v3 Extended Key Usage: 
                TLS Web Client Authentication, TLS Web Server Authentication
    Signature Algorithm: sha256WithRSAEncryption
         74:da:9b:25:50:fe:c9:68:da:7c:06:ac:62:ca:3f:9c:1d:86:
         46:7e:d9:de:03:d2:7a:30:36:3b:db:73:df:90:4b:0e:8c:77:
         30:b9:0e:44:e6:3b:b3:2f:0d:15:38:32:aa:1d:1a:1e:07:3e:
         da:2b:08:c1:b4:50:d9:bc:4d:2b:05:24:f1:8e:b3:82:ba:d5:
         3c:c8:c7:13:57:f8:6d:e9:17:78:73:9a:93:50:f0:b3:ba:18:
         3d:af:9f:b5:5c:f9:f4:cb:99:dc:62:42:91:72:be:68:81:14:
         69:35:3d:af:c4:64:f0:ed:c2:3c:bf:40:3b:a9:f2:78:b2:d1:
         ff:08:1d:9a:e1:2f:06:35:c6:f1:44:10:1e:38:1a:65:2e:a8:
         2d:5a:39:8f:a2:8f:b9:4c:df:90:07:3e:89:c9:d5:f8:b5:b4:
         15:b9:c7:52:ac:9a:09:68:5b:c7:07:ac:6f:7d:0e:8d:82:91:
         43:ed:65:21:d9:de:2f:de:74:a4:c0:73:aa:87:08:8a:92:c5:
         10:df:e6:58:c1:73:8b:ab:bc:1f:c3:b0:50:56:24:e0:1f:3d:
         f0:58:38:ad:4d:13:46:5c:ab:1b:ec:ac:00:fa:1e:b2:4c:71:
         97:84:e2:30:05:33:8b:5f:61:31:4d:31:be:bc:7d:33:01:64:
         0f:65:68:5b
-----BEGIN CERTIFICATE-----
MIIDfjCCAmagAwIBAgICF/AwDQYJKoZIhvcNAQELBQAwWjELMAkGA1UEBhMCVVMx
EzARBgNVBAgTCldhc2hpbmd0b24xEDAOBgNVBAcTB1NlYXR0bGUxJDAiBgNVBAoT
G2dldGFDZXJ0IC0gd3d3LmdldGFjZXJ0LmNvbTAeFw0yMjA0MjcwNjI5MzJaFw0y
MjA2MjYwNjI5MzJaMFwxCzAJBgNVBAYTAk5PMRIwEAYDVQQIEwlUcm9uZGVsYWcx
DDAKBgNVBAcTA1RSRDENMAsGA1UEChMEQk9DTzENMAsGA1UECxMEQk9DTzENMAsG
A1UEAxMEQk9DTzCCASIwDQYJKoZIhvcNAQEBBQADggEPADCCAQoCggEBAKFObmmQ
YJVcGDksJsYgT/l6YTxDdHV2dZth0VtIaJBkFLx5kc7T0CKklBLXhTZLaqpzavZX
fNyfF9ak6BEVCtpgeLHuLky41H1PWi/gsOB2q/FulM9OATSCGj+L2arfJ3vQ0dsA
6oQHTf+w0ZaIMM3oNFNfGn4JNXEx3NbCTJ7E0G2WZ38Yp6FcL8VobzB4nphWiVxI
RsT42XjaB6M8WvU4lE50ha88NsXUd0/gr2Yc1PK/h7Fds6Ytlxc4RZPoX7S7hf1i
tLCDsDUf9siw6++7rfAkQDgsNdiA2uW5KdqK09PNYfq/iPOR31N5vYEHJB2+/dIS
pv/x0YczrbTKJvMCAwEAAaNMMEowCQYDVR0TBAIwADARBglghkgBhvhCAQEEBAMC
BPAwCwYDVR0PBAQDAgWgMB0GA1UdJQQWMBQGCCsGAQUFBwMCBggrBgEFBQcDATAN
BgkqhkiG9w0BAQsFAAOCAQEAdNqbJVD+yWjafAasYso/nB2GRn7Z3gPSejA2O9tz
35BLDox3MLkOROY7sy8NFTgyqh0aHgc+2isIwbRQ2bxNKwUk8Y6zgrrVPMjHE1f4
bekXeHOak1Dws7oYPa+ftVz59MuZ3GJCkXK+aIEUaTU9r8Rk8O3CPL9AO6nyeLLR
/wgdmuEvBjXG8UQQHjgaZS6oLVo5j6KPuUzfkAc+icnV+LW0FbnHUqyaCWhbxwes
b30OjYKRQ+1lIdneL950pMBzqocIipLFEN/mWMFzi6u8H8OwUFYk4B898Fg4rU0T
RlyrG+ysAPoeskxxl4TiMAUzi19hMU0xvrx9MwFkD2VoWw==
-----END CERTIFICATE-----
