Certificate:
    Data:
        Version: 3 (0x2)
        Serial Number: 6112 (0x17e0)
        Signature Algorithm: sha256WithRSAEncryption
        Issuer: C=US, ST=Washington, L=Seattle, O=getaCert - www.getacert.com
        Validity
            Not Before: Apr 26 14:15:36 2022 GMT
            Not After : Jun 25 14:15:36 2022 GMT
        Subject: C=NO, ST=Trondelag, L=Trondheim, O=BOCO, OU=BOCO, CN=Hasan Omarzae
        Subject Public Key Info:
            Public Key Algorithm: rsaEncryption
                RSA Public-Key: (2048 bit)
                Modulus:
                    00:8c:4d:ff:88:e3:f2:01:fd:7e:ad:b9:89:2f:83:
                    1f:ee:1f:ae:d1:1d:3d:42:06:ac:88:84:00:6e:34:
                    a8:91:88:b3:4f:86:2a:39:55:cf:39:ea:2e:f1:59:
                    69:d6:d7:15:ab:d9:11:3e:e7:80:4e:2f:cf:cd:52:
                    9f:52:3b:71:ba:b3:c8:bf:cb:65:07:a5:c1:2c:c2:
                    ee:c3:de:a9:92:ea:18:99:fa:db:88:01:a6:b7:90:
                    47:bc:c8:a6:76:5a:89:7e:93:99:0d:5e:30:e2:ef:
                    34:6b:4f:9f:15:e8:04:88:b9:b6:3f:28:90:b7:2e:
                    26:16:8b:3a:af:45:c0:8c:70:99:0c:7c:2a:36:b8:
                    6e:28:b3:ee:01:ae:d3:ac:1c:7c:84:4b:5c:8a:1c:
                    65:1c:7d:81:fb:2a:63:26:ee:61:48:ab:8e:91:9f:
                    cd:cb:f9:bb:c6:49:52:6a:1f:c2:20:63:92:b3:fc:
                    da:64:ff:16:0a:31:b0:57:c7:10:fc:55:7e:1e:5a:
                    a5:66:3d:b9:b6:7b:92:f1:dc:20:3f:6a:f3:b1:ed:
                    ff:c2:87:6a:39:7b:4a:27:54:f2:a5:f3:4b:f9:42:
                    ad:af:c5:4e:c9:d6:85:da:58:e2:29:9c:2e:0f:80:
                    94:60:7d:c7:df:27:cd:8d:fc:00:3c:a2:78:3b:8b:
                    59:cb
                Exponent: 65537 (0x10001)
        X509v3 extensions:
            X509v3 Basic Constraints: 
                CA:FALSE
            Netscape Cert Type: 
                SSL Client, SSL Server, S/MIME, Object Signing
            X509v3 Key Usage: 
                Digital Signature, Key Encipherment
            X509v3 Extended Key Usage: 
                TLS Web Client Authentication, TLS Web Server Authentication
    Signature Algorithm: sha256WithRSAEncryption
         46:6a:ee:b4:b6:9f:4e:df:c8:7a:96:58:c1:b5:e0:a3:cd:89:
         3d:32:37:05:b0:99:68:db:7b:1e:59:5b:fd:67:19:01:60:08:
         0d:c5:7c:46:41:1c:7b:98:2c:c1:e7:7a:4f:9d:bf:1e:48:7b:
         32:04:d6:c9:96:01:61:63:45:e2:8e:30:44:f2:57:49:ae:55:
         51:59:5e:10:eb:f9:9c:58:bd:e0:85:a3:46:14:c2:11:3c:77:
         2d:b9:31:74:65:1b:3f:f4:21:49:dd:ca:77:03:8b:c2:c6:68:
         de:52:d5:cc:42:4e:9f:0e:0b:9a:08:a2:29:48:e7:e9:bc:0a:
         6d:fe:83:48:ac:34:d8:80:87:cb:34:f6:26:37:c4:e1:83:03:
         04:ba:e0:48:79:5e:a6:08:5d:b5:20:02:9e:f5:47:1c:02:a8:
         07:cc:06:6a:a5:69:54:39:42:86:9a:af:91:0e:01:18:b5:65:
         72:72:99:7e:ee:f3:f2:b8:10:82:fb:c1:11:32:3c:93:7c:b8:
         37:45:82:32:d8:d4:59:9a:17:0c:92:79:32:dd:2b:78:e6:c1:
         d7:17:a1:b6:40:45:58:34:59:c2:88:07:68:5f:6e:af:fa:41:
         2b:5b:3e:c8:cf:e1:1c:b2:86:bb:37:57:cb:ac:4c:b4:7f:81:
         09:5a:f7:49
-----BEGIN CERTIFICATE-----
MIIDjTCCAnWgAwIBAgICF+AwDQYJKoZIhvcNAQELBQAwWjELMAkGA1UEBhMCVVMx
EzARBgNVBAgTCldhc2hpbmd0b24xEDAOBgNVBAcTB1NlYXR0bGUxJDAiBgNVBAoT
G2dldGFDZXJ0IC0gd3d3LmdldGFjZXJ0LmNvbTAeFw0yMjA0MjYxNDE1MzZaFw0y
MjA2MjUxNDE1MzZaMGsxCzAJBgNVBAYTAk5PMRIwEAYDVQQIEwlUcm9uZGVsYWcx
EjAQBgNVBAcTCVRyb25kaGVpbTENMAsGA1UEChMEQk9DTzENMAsGA1UECxMEQk9D
TzEWMBQGA1UEAxMNSGFzYW4gT21hcnphZTCCASIwDQYJKoZIhvcNAQEBBQADggEP
ADCCAQoCggEBAIxN/4jj8gH9fq25iS+DH+4frtEdPUIGrIiEAG40qJGIs0+GKjlV
zznqLvFZadbXFavZET7ngE4vz81Sn1I7cbqzyL/LZQelwSzC7sPeqZLqGJn624gB
preQR7zIpnZaiX6TmQ1eMOLvNGtPnxXoBIi5tj8okLcuJhaLOq9FwIxwmQx8Kja4
biiz7gGu06wcfIRLXIocZRx9gfsqYybuYUirjpGfzcv5u8ZJUmofwiBjkrP82mT/
FgoxsFfHEPxVfh5apWY9ubZ7kvHcID9q87Ht/8KHajl7SidU8qXzS/lCra/FTsnW
hdpY4imcLg+AlGB9x98nzY38ADyieDuLWcsCAwEAAaNMMEowCQYDVR0TBAIwADAR
BglghkgBhvhCAQEEBAMCBPAwCwYDVR0PBAQDAgWgMB0GA1UdJQQWMBQGCCsGAQUF
BwMCBggrBgEFBQcDATANBgkqhkiG9w0BAQsFAAOCAQEARmrutLafTt/IepZYwbXg
o82JPTI3BbCZaNt7Hllb/WcZAWAIDcV8RkEce5gswed6T52/Hkh7MgTWyZYBYWNF
4o4wRPJXSa5VUVleEOv5nFi94IWjRhTCETx3LbkxdGUbP/QhSd3KdwOLwsZo3lLV
zEJOnw4LmgiiKUjn6bwKbf6DSKw02ICHyzT2JjfE4YMDBLrgSHlepghdtSACnvVH
HAKoB8wGaqVpVDlChpqvkQ4BGLVlcnKZfu7z8rgQgvvBETI8k3y4N0WCMtjUWZoX
DJJ5Mt0reObB1xehtkBFWDRZwogHaF9ur/pBK1s+yM/hHLKGuzdXy6xMtH+BCVr3
SQ==
-----END CERTIFICATE-----
